; Function Attrs: mustprogress uwtable
define dso_local void @_ZNK9FactUnion6OutputERSo(ptr noundef nonnull readonly align 8 captures(none) dereferenceable(28) %0, ptr noundef nonnull align 8 dereferenceable(8) %1) unnamed_addr #3 align 2 {
  %3 = getelementptr inbounds nuw i8, ptr %0, i64 16
  %4 = load ptr, ptr %3, align 8, !tbaa !7
  %5 = load ptr, ptr %4, align 8, !tbaa !4
  %6 = getelementptr inbounds nuw i8, ptr %5, i64 88
  %7 = load ptr, ptr %6, align 8
  tail call void %7(ptr noundef nonnull align 8 dereferenceable(200) %4, ptr noundef nonnull align 8 dereferenceable(8) %1)
  %8 = tail call noundef nonnull align 8 dereferenceable(8) ptr @_ZSt16__ostream_insertIcSt11char_traitsIcEERSt13basic_ostreamIT_T0_ES6_PKS3_l(ptr noundef nonnull align 8 dereferenceable(8) %1, ptr noundef nonnull @.str, i64 noundef 21)
  %9 = getelementptr inbounds nuw i8, ptr %0, i64 24
  %10 = load i32, ptr %9, align 8, !tbaa !15
  %11 = tail call noundef nonnull align 8 dereferenceable(8) ptr @_ZNSolsEi(ptr noundef nonnull align 8 dereferenceable(8) %1, i32 noundef %10)
  ret void
}